target datalayout = "e-m:e-p270:32:32-p271:32:32-p272:64:64-i64:64-i128:128-f80:128-n8:16:32:64-S128"
target triple = "x86_64-pc-linux-gnu"

%struct.spice_conversation_t = type { i32, i32, i32, i32, i32, i32, i32, i16, i8, i8, i8, i8 }

@.str.756 = private unnamed_addr constant [23 x i8] c"Unknown client message\00", align 1
@.str.757 = private unnamed_addr constant [23 x i8] c"Unknown server message\00", align 1
@.str.758 = private unnamed_addr constant [36 x i8] c"Unknown main channel client message\00", align 1
@.str.759 = private unnamed_addr constant [36 x i8] c"Unknown main channel server message\00", align 1
@.str.760 = private unnamed_addr constant [39 x i8] c"Unknown display channel client message\00", align 1
@.str.761 = private unnamed_addr constant [39 x i8] c"Unknown display channel server message\00", align 1
@.str.762 = private unnamed_addr constant [38 x i8] c"Unknown inputs channel client message\00", align 1
@.str.763 = private unnamed_addr constant [38 x i8] c"Unknown inputs channel server message\00", align 1
@.str.764 = private unnamed_addr constant [38 x i8] c"Unknown cursor channel client message\00", align 1
@.str.765 = private unnamed_addr constant [38 x i8] c"Unknown cursor channel server message\00", align 1
@.str.766 = private unnamed_addr constant [40 x i8] c"Unknown playback channel server message\00", align 1
@.str.767 = private unnamed_addr constant [38 x i8] c"Unknown record channel client message\00", align 1
@.str.768 = private unnamed_addr constant [38 x i8] c"Unknown record channel server message\00", align 1
@.str.769 = private unnamed_addr constant [38 x i8] c"Unknown tunnel channel client message\00", align 1
@.str.770 = private unnamed_addr constant [38 x i8] c"Unknown tunnel channel server message\00", align 1
@.str.771 = private unnamed_addr constant [41 x i8] c"Unknown smartcard channel client message\00", align 1
@.str.772 = private unnamed_addr constant [41 x i8] c"Unknown smartcard channel server message\00", align 1
@.str.773 = private unnamed_addr constant [40 x i8] c"Unknown usbredir channel client message\00", align 1
@.str.774 = private unnamed_addr constant [40 x i8] c"Unknown usbredir channel server message\00", align 1
@.str.775 = private unnamed_addr constant [16 x i8] c"Unknown message\00", align 1
@spice_msgc_smartcard_vs = internal constant [2 x { i32, [4 x i8], ptr }] [{ i32, [4 x i8], ptr } { i32 101, [4 x i8] zeroinitializer, ptr @.str.913 }, { i32, [4 x i8], ptr } zeroinitializer], align 16
@spice_msg_smartcard_vs = internal constant [2 x { i32, [4 x i8], ptr }] [{ i32, [4 x i8], ptr } { i32 101, [4 x i8] zeroinitializer, ptr @.str.883 }, { i32, [4 x i8], ptr } zeroinitializer], align 16
@spice_msg_spicevmc_vs = internal constant [3 x { i32, [4 x i8], ptr }] [{ i32, [4 x i8], ptr } { i32 101, [4 x i8] zeroinitializer, ptr @.str.883 }, { i32, [4 x i8], ptr } { i32 102, [4 x i8] zeroinitializer, ptr @.str.916 }, { i32, [4 x i8], ptr } zeroinitializer], align 16
@spice_msgc_spicevmc_vs = internal constant [3 x { i32, [4 x i8], ptr }] [{ i32, [4 x i8], ptr } { i32 101, [4 x i8] zeroinitializer, ptr @.str.890 }, { i32, [4 x i8], ptr } { i32 102, [4 x i8] zeroinitializer, ptr @.str.918 }, { i32, [4 x i8], ptr } zeroinitializer], align 16

; Function Attrs: null_pointer_is_valid sspstrong uwtable
define internal ptr @get_message_type_string(i16 noundef zeroext %0, ptr noundef %1, i1 noundef zeroext %2) #0 {
  %4 = alloca ptr, align 8
  %5 = alloca i16, align 2
  %6 = alloca ptr, align 8
  %7 = alloca i8, align 1
  %8 = alloca ptr, align 8
  %9 = alloca ptr, align 8
  store i16 %0, ptr %5, align 2
  store ptr %1, ptr %6, align 8
  %10 = zext i1 %2 to i8
  store i8 %10, ptr %7, align 1
  %11 = load i16, ptr %5, align 2
  %12 = zext i16 %11 to i32
  %13 = icmp slt i32 %12, 101
  br i1 %13, label %14, label %25

14:                                               ; preds = %3
  %15 = load i8, ptr %7, align 1, !range !6, !noundef !7
  %16 = trunc i8 %15 to i1
  br i1 %16, label %17, label %21

17:                                               ; preds = %14
  %18 = load i16, ptr %5, align 2
  %19 = zext i16 %18 to i32
  %20 = call ptr @val_to_str_const(i32 noundef %19, ptr noundef @spice_msgc_vs, ptr noundef @.str.756)
  store ptr %20, ptr %4, align 8
  br label %136

21:                                               ; preds = %14
  %22 = load i16, ptr %5, align 2
  %23 = zext i16 %22 to i32
  %24 = call ptr @val_to_str_const(i32 noundef %23, ptr noundef @spice_msg_vs, ptr noundef @.str.757)
  store ptr %24, ptr %4, align 8
  br label %136

25:                                               ; preds = %3
  %26 = load ptr, ptr %6, align 8
  %27 = getelementptr inbounds nuw %struct.spice_conversation_t, ptr %26, i32 0, i32 8
  %28 = load i8, ptr %27, align 2
  %29 = zext i8 %28 to i32
  switch i32 %29, label %134 [
    i32 1, label %30
    i32 2, label %41
    i32 3, label %52
    i32 4, label %63
    i32 5, label %74
    i32 6, label %78
    i32 7, label %89
    i32 8, label %100
    i32 9, label %111
  ]

30:                                               ; preds = %25
  %31 = load i8, ptr %7, align 1, !range !6, !noundef !7
  %32 = trunc i8 %31 to i1
  br i1 %32, label %33, label %37

33:                                               ; preds = %30
  %34 = load i16, ptr %5, align 2
  %35 = zext i16 %34 to i32
  %36 = call ptr @val_to_str_const(i32 noundef %35, ptr noundef @spice_msgc_main_vs, ptr noundef @.str.758)
  store ptr %36, ptr %4, align 8
  br label %136

37:                                               ; preds = %30
  %38 = load i16, ptr %5, align 2
  %39 = zext i16 %38 to i32
  %40 = call ptr @val_to_str_const(i32 noundef %39, ptr noundef @spice_msg_main_vs, ptr noundef @.str.759)
  store ptr %40, ptr %4, align 8
  br label %136

41:                                               ; preds = %25
  %42 = load i8, ptr %7, align 1, !range !6, !noundef !7
  %43 = trunc i8 %42 to i1
  br i1 %43, label %44, label %48

44:                                               ; preds = %41
  %45 = load i16, ptr %5, align 2
  %46 = zext i16 %45 to i32
  %47 = call ptr @val_to_str_const(i32 noundef %46, ptr noundef @spice_msgc_display_vs, ptr noundef @.str.760)
  store ptr %47, ptr %4, align 8
  br label %136

48:                                               ; preds = %41
  %49 = load i16, ptr %5, align 2
  %50 = zext i16 %49 to i32
  %51 = call ptr @val_to_str_const(i32 noundef %50, ptr noundef @spice_msg_display_vs, ptr noundef @.str.761)
  store ptr %51, ptr %4, align 8
  br label %136

52:                                               ; preds = %25
  %53 = load i8, ptr %7, align 1, !range !6, !noundef !7
  %54 = trunc i8 %53 to i1
  br i1 %54, label %55, label %59

55:                                               ; preds = %52
  %56 = load i16, ptr %5, align 2
  %57 = zext i16 %56 to i32
  %58 = call ptr @val_to_str_const(i32 noundef %57, ptr noundef @spice_msgc_inputs_vs, ptr noundef @.str.762)
  store ptr %58, ptr %4, align 8
  br label %136

59:                                               ; preds = %52
  %60 = load i16, ptr %5, align 2
  %61 = zext i16 %60 to i32
  %62 = call ptr @val_to_str_const(i32 noundef %61, ptr noundef @spice_msg_inputs_vs, ptr noundef @.str.763)
  store ptr %62, ptr %4, align 8
  br label %136

63:                                               ; preds = %25
  %64 = load i8, ptr %7, align 1, !range !6, !noundef !7
  %65 = trunc i8 %64 to i1
  br i1 %65, label %66, label %70

66:                                               ; preds = %63
  %67 = load i16, ptr %5, align 2
  %68 = zext i16 %67 to i32
  %69 = call ptr @val_to_str_const(i32 noundef %68, ptr noundef null, ptr noundef @.str.764)
  store ptr %69, ptr %4, align 8
  br label %136

70:                                               ; preds = %63
  %71 = load i16, ptr %5, align 2
  %72 = zext i16 %71 to i32
  %73 = call ptr @val_to_str_const(i32 noundef %72, ptr noundef @spice_msg_cursor_vs, ptr noundef @.str.765)
  store ptr %73, ptr %4, align 8
  br label %136

74:                                               ; preds = %25
  %75 = load i16, ptr %5, align 2
  %76 = zext i16 %75 to i32
  %77 = call ptr @val_to_str_const(i32 noundef %76, ptr noundef @spice_msg_playback_vs, ptr noundef @.str.766)
  store ptr %77, ptr %4, align 8
  br label %136

78:                                               ; preds = %25
  %79 = load i8, ptr %7, align 1, !range !6, !noundef !7
  %80 = trunc i8 %79 to i1
  br i1 %80, label %81, label %85

81:                                               ; preds = %78
  %82 = load i16, ptr %5, align 2
  %83 = zext i16 %82 to i32
  %84 = call ptr @val_to_str_const(i32 noundef %83, ptr noundef @spice_msgc_record_vs, ptr noundef @.str.767)
  store ptr %84, ptr %4, align 8
  br label %136

85:                                               ; preds = %78
  %86 = load i16, ptr %5, align 2
  %87 = zext i16 %86 to i32
  %88 = call ptr @val_to_str_const(i32 noundef %87, ptr noundef @spice_msg_record_vs, ptr noundef @.str.768)
  store ptr %88, ptr %4, align 8
  br label %136

89:                                               ; preds = %25
  %90 = load i8, ptr %7, align 1, !range !6, !noundef !7
  %91 = trunc i8 %90 to i1
  br i1 %91, label %92, label %96

92:                                               ; preds = %89
  %93 = load i16, ptr %5, align 2
  %94 = zext i16 %93 to i32
  %95 = call ptr @val_to_str_const(i32 noundef %94, ptr noundef @spice_msgc_tunnel_vs, ptr noundef @.str.769)
  store ptr %95, ptr %4, align 8
  br label %136

96:                                               ; preds = %89
  %97 = load i16, ptr %5, align 2
  %98 = zext i16 %97 to i32
  %99 = call ptr @val_to_str_const(i32 noundef %98, ptr noundef @spice_msg_tunnel_vs, ptr noundef @.str.770)
  store ptr %99, ptr %4, align 8
  br label %136

100:                                              ; preds = %25
  %101 = load i8, ptr %7, align 1, !range !6, !noundef !7
  %102 = trunc i8 %101 to i1
  br i1 %102, label %103, label %107

103:                                              ; preds = %100
  %104 = load i16, ptr %5, align 2
  %105 = zext i16 %104 to i32
  %106 = call ptr @val_to_str_const(i32 noundef %105, ptr noundef @spice_msgc_smartcard_vs, ptr noundef @.str.771)
  store ptr %106, ptr %4, align 8
  br label %136

107:                                              ; preds = %100
  %108 = load i16, ptr %5, align 2
  %109 = zext i16 %108 to i32
  %110 = call ptr @val_to_str_const(i32 noundef %109, ptr noundef @spice_msg_smartcard_vs, ptr noundef @.str.772)
  store ptr %110, ptr %4, align 8
  br label %136

111:                                              ; preds = %25
  %112 = load i8, ptr %7, align 1, !range !6, !noundef !7
  %113 = trunc i8 %112 to i1
  br i1 %113, label %114, label %124

114:                                              ; preds = %111
  call void @llvm.lifetime.start.p0(i64 8, ptr %8) #6
  store ptr null, ptr %8, align 8
  %115 = load i16, ptr %5, align 2
  %116 = zext i16 %115 to i32
  %117 = icmp slt i32 %116, 103
  br i1 %117, label %118, label %119

118:                                              ; preds = %114
  store ptr @spice_msg_spicevmc_vs, ptr %8, align 8
  br label %119

119:                                              ; preds = %118, %114
  %120 = load i16, ptr %5, align 2
  %121 = zext i16 %120 to i32
  %122 = load ptr, ptr %8, align 8
  %123 = call ptr @val_to_str_const(i32 noundef %121, ptr noundef %122, ptr noundef @.str.773)
  store ptr %123, ptr %4, align 8
  call void @llvm.lifetime.end.p0(i64 8, ptr %8) #6
  br label %136

124:                                              ; preds = %111
  call void @llvm.lifetime.start.p0(i64 8, ptr %9) #6
  store ptr null, ptr %9, align 8
  %125 = load i16, ptr %5, align 2
  %126 = zext i16 %125 to i32
  %127 = icmp slt i32 %126, 103
  br i1 %127, label %128, label %129

128:                                              ; preds = %124
  store ptr @spice_msgc_spicevmc_vs, ptr %9, align 8
  br label %129

129:                                              ; preds = %128, %124
  %130 = load i16, ptr %5, align 2
  %131 = zext i16 %130 to i32
  %132 = load ptr, ptr %9, align 8
  %133 = call ptr @val_to_str_const(i32 noundef %131, ptr noundef %132, ptr noundef @.str.774)
  store ptr %133, ptr %4, align 8
  call void @llvm.lifetime.end.p0(i64 8, ptr %9) #6
  br label %136

134:                                              ; preds = %25
  br label %135

135:                                              ; preds = %134
  store ptr @.str.775, ptr %4, align 8
  br label %136

136:                                              ; preds = %135, %129, %119, %107, %103, %96, %92, %85, %81, %74, %70, %66, %59, %55, %48, %44, %37, %33, %21, %17
  %137 = load ptr, ptr %4, align 8
  ret ptr %137
}