; Function Attrs: null_pointer_is_valid sspstrong uwtable
define internal fastcc ptr @get_message_type_string(i16 noundef zeroext %0, ptr noundef readonly captures(none) %1, i1 noundef zeroext %2) unnamed_addr #0 {
  %4 = zext i16 %0 to i32
  %5 = icmp ult i16 %0, 101
  br i1 %5, label %6, label %11

6:                                                ; preds = %3
  br i1 %2, label %7, label %9

7:                                                ; preds = %6
  %8 = tail call ptr @val_to_str_const(i32 noundef %4, ptr noundef nonnull @spice_msgc_vs, ptr noundef nonnull @.str.756)
  br label %57

9:                                                ; preds = %6
  %10 = tail call ptr @val_to_str_const(i32 noundef %4, ptr noundef nonnull @spice_msg_vs, ptr noundef nonnull @.str.757)
  br label %57

11:                                               ; preds = %3
  %12 = getelementptr inbounds nuw i8, ptr %1, i64 30
  %13 = load i8, ptr %12, align 2
  switch i8 %13, label %57 [
    i8 1, label %14
    i8 2, label %19
    i8 3, label %24
    i8 4, label %29
    i8 5, label %34
    i8 6, label %36
    i8 7, label %41
    i8 8, label %46
    i8 9, label %51
  ]

14:                                               ; preds = %11
  br i1 %2, label %15, label %17

15:                                               ; preds = %14
  %16 = tail call ptr @val_to_str_const(i32 noundef %4, ptr noundef nonnull @spice_msgc_main_vs, ptr noundef nonnull @.str.758)
  br label %57

17:                                               ; preds = %14
  %18 = tail call ptr @val_to_str_const(i32 noundef %4, ptr noundef nonnull @spice_msg_main_vs, ptr noundef nonnull @.str.759)
  br label %57

19:                                               ; preds = %11
  br i1 %2, label %20, label %22

20:                                               ; preds = %19
  %21 = tail call ptr @val_to_str_const(i32 noundef %4, ptr noundef nonnull @spice_msgc_display_vs, ptr noundef nonnull @.str.760)
  br label %57

22:                                               ; preds = %19
  %23 = tail call ptr @val_to_str_const(i32 noundef %4, ptr noundef nonnull @spice_msg_display_vs, ptr noundef nonnull @.str.761)
  br label %57

24:                                               ; preds = %11
  br i1 %2, label %25, label %27

25:                                               ; preds = %24
  %26 = tail call ptr @val_to_str_const(i32 noundef %4, ptr noundef nonnull @spice_msgc_inputs_vs, ptr noundef nonnull @.str.762)
  br label %57

27:                                               ; preds = %24
  %28 = tail call ptr @val_to_str_const(i32 noundef %4, ptr noundef nonnull @spice_msg_inputs_vs, ptr noundef nonnull @.str.763)
  br label %57

29:                                               ; preds = %11
  br i1 %2, label %30, label %32

30:                                               ; preds = %29
  %31 = tail call ptr @val_to_str_const(i32 noundef %4, ptr noundef null, ptr noundef nonnull @.str.764)
  br label %57

32:                                               ; preds = %29
  %33 = tail call ptr @val_to_str_const(i32 noundef %4, ptr noundef nonnull @spice_msg_cursor_vs, ptr noundef nonnull @.str.765)
  br label %57

34:                                               ; preds = %11
  %35 = tail call ptr @val_to_str_const(i32 noundef %4, ptr noundef nonnull @spice_msg_playback_vs, ptr noundef nonnull @.str.766)
  br label %57

36:                                               ; preds = %11
  br i1 %2, label %37, label %39

37:                                               ; preds = %36
  %38 = tail call ptr @val_to_str_const(i32 noundef %4, ptr noundef nonnull @spice_msgc_record_vs, ptr noundef nonnull @.str.767)
  br label %57

39:                                               ; preds = %36
  %40 = tail call ptr @val_to_str_const(i32 noundef %4, ptr noundef nonnull @spice_msg_record_vs, ptr noundef nonnull @.str.768)
  br label %57

41:                                               ; preds = %11
  br i1 %2, label %42, label %44

42:                                               ; preds = %41
  %43 = tail call ptr @val_to_str_const(i32 noundef %4, ptr noundef nonnull @spice_msgc_tunnel_vs, ptr noundef nonnull @.str.769)
  br label %57

44:                                               ; preds = %41
  %45 = tail call ptr @val_to_str_const(i32 noundef %4, ptr noundef nonnull @spice_msg_tunnel_vs, ptr noundef nonnull @.str.770)
  br label %57

46:                                               ; preds = %11
  br i1 %2, label %47, label %49

47:                                               ; preds = %46
  %48 = tail call ptr @val_to_str_const(i32 noundef %4, ptr noundef nonnull @spice_msgc_smartcard_vs, ptr noundef nonnull @.str.771)
  br label %57

49:                                               ; preds = %46
  %50 = tail call ptr @val_to_str_const(i32 noundef %4, ptr noundef nonnull @spice_msg_smartcard_vs, ptr noundef nonnull @.str.772)
  br label %57

51:                                               ; preds = %11
  %52 = icmp ult i16 %0, 103
  br i1 %2, label %53, label %55

53:                                               ; preds = %51
  %spec.store.select = select i1 %52, ptr @spice_msg_spicevmc_vs, ptr null
  %54 = tail call ptr @val_to_str_const(i32 noundef %4, ptr noundef %spec.store.select, ptr noundef nonnull @.str.773)
  br label %57

55:                                               ; preds = %51
  %spec.store.select1 = select i1 %52, ptr @spice_msgc_spicevmc_vs, ptr null
  %56 = tail call ptr @val_to_str_const(i32 noundef %4, ptr noundef %spec.store.select1, ptr noundef nonnull @.str.774)
  br label %57

57:                                               ; preds = %11, %55, %53, %49, %47, %44, %42, %39, %37, %34, %32, %30, %27, %25, %22, %20, %17, %15, %9, %7
  %.0 = phi ptr [ %8, %7 ], [ %10, %9 ], [ %54, %53 ], [ %56, %55 ], [ %48, %47 ], [ %50, %49 ], [ %43, %42 ], [ %45, %44 ], [ %38, %37 ], [ %40, %39 ], [ %35, %34 ], [ %31, %30 ], [ %33, %32 ], [ %26, %25 ], [ %28, %27 ], [ %21, %20 ], [ %23, %22 ], [ %16, %15 ], [ %18, %17 ], [ @.str.775, %11 ]
  ret ptr %.0
}